; Function Attrs: mustprogress uwtable
define void @_ZNK5Ipopt10DiagMatrix9PrintImplERKNS_10JournalistENS_13EJournalLevelENS_16EJournalCategoryERKNSt7__cxx1112basic_stringIcSt11char_traitsIcESaIcEEEiSD_(ptr nocapture noundef nonnull readonly align 8 dereferenceable(88) %0, ptr noundef nonnull align 8 dereferenceable(40) %1, i32 noundef %2, i32 noundef %3, ptr noundef nonnull align 8 dereferenceable(32) %4, i32 noundef %5, ptr noundef nonnull align 8 dereferenceable(32) %6) unnamed_addr #0 align 2 personality ptr @__gxx_personality_v0 {
  %8 = alloca %"class.Ipopt::SmartPtr.11", align 8
  %9 = load ptr, ptr %1, align 8
  %10 = getelementptr inbounds i8, ptr %9, i64 16
  %11 = load ptr, ptr %10, align 8
  tail call void (ptr, i32, i32, ptr, ...) %11(ptr noundef nonnull align 8 dereferenceable(40) %1, i32 noundef %2, i32 noundef %3, ptr noundef nonnull @.str)
  %12 = tail call noundef ptr @_ZNKSt7__cxx1112basic_stringIcSt11char_traitsIcESaIcEE5c_strEv(ptr noundef nonnull align 8 dereferenceable(32) %6) #9
  %13 = tail call noundef ptr @_ZNKSt7__cxx1112basic_stringIcSt11char_traitsIcESaIcEE5c_strEv(ptr noundef nonnull align 8 dereferenceable(32) %4) #9
  %14 = getelementptr inbounds i8, ptr %0, i64 72
  %15 = load ptr, ptr %14, align 8
  %16 = getelementptr inbounds i8, ptr %15, i64 12
  %17 = load i32, ptr %16, align 4
  %18 = load ptr, ptr %1, align 8
  %19 = getelementptr inbounds i8, ptr %18, i64 32
  %20 = load ptr, ptr %19, align 8
  tail call void (ptr, i32, i32, i32, ptr, ...) %20(ptr noundef nonnull align 8 dereferenceable(40) %1, i32 noundef %2, i32 noundef %3, i32 noundef %5, ptr noundef nonnull @.str.1, ptr noundef %12, ptr noundef %13, i32 noundef %17)
  %21 = getelementptr inbounds i8, ptr %0, i64 80
  %22 = load ptr, ptr %21, align 8
  %.not = icmp eq ptr %22, null
  br i1 %.not, label %50, label %_ZN5Ipopt8SmartPtrIKNS_10JournalistEEC2EPS2_.exit

_ZN5Ipopt8SmartPtrIKNS_10JournalistEEC2EPS2_.exit: ; preds = %7
  %23 = getelementptr inbounds i8, ptr %1, i64 8
  %24 = load i32, ptr %23, align 8
  %25 = add nsw i32 %24, 1
  store i32 %25, ptr %23, align 8
  store ptr %1, ptr %8, align 8
  %26 = add nsw i32 %5, 1
  invoke void @_ZNK5Ipopt6Vector5PrintENS_8SmartPtrIKNS_10JournalistEEENS_13EJournalLevelENS_16EJournalCategoryERKNSt7__cxx1112basic_stringIcSt11char_traitsIcESaIcEEEiSE_(ptr noundef nonnull align 8 dereferenceable(205) %22, ptr noundef nonnull %8, i32 noundef %2, i32 noundef %3, ptr noundef nonnull align 8 dereferenceable(32) %4, i32 noundef %26, ptr noundef nonnull align 8 dereferenceable(32) %6)
          to label %27 unwind label %38

27:                                               ; preds = %_ZN5Ipopt8SmartPtrIKNS_10JournalistEEC2EPS2_.exit
  %28 = load ptr, ptr %8, align 8
  %.not.i.i = icmp eq ptr %28, null
  br i1 %.not.i.i, label %_ZN5Ipopt8SmartPtrIKNS_10JournalistEED2Ev.exit, label %29

29:                                               ; preds = %27
  %30 = getelementptr inbounds i8, ptr %28, i64 8
  %31 = load i32, ptr %30, align 8
  %32 = add nsw i32 %31, -1
  store i32 %32, ptr %30, align 8
  %33 = icmp eq i32 %32, 0
  br i1 %33, label %34, label %_ZN5Ipopt8SmartPtrIKNS_10JournalistEED2Ev.exit

34:                                               ; preds = %29
  %35 = load ptr, ptr %28, align 8
  %36 = getelementptr inbounds i8, ptr %35, i64 8
  %37 = load ptr, ptr %36, align 8
  call void %37(ptr noundef nonnull align 8 dereferenceable(40) %28) #9
  br label %_ZN5Ipopt8SmartPtrIKNS_10JournalistEED2Ev.exit

38:                                               ; preds = %_ZN5Ipopt8SmartPtrIKNS_10JournalistEEC2EPS2_.exit
  %39 = landingpad { ptr, i32 }
          cleanup
  %40 = load ptr, ptr %8, align 8
  %.not.i.i22 = icmp eq ptr %40, null
  br i1 %.not.i.i22, label %_ZN5Ipopt8SmartPtrIKNS_10JournalistEED2Ev.exit23, label %41

41:                                               ; preds = %38
  %42 = getelementptr inbounds i8, ptr %40, i64 8
  %43 = load i32, ptr %42, align 8
  %44 = add nsw i32 %43, -1
  store i32 %44, ptr %42, align 8
  %45 = icmp eq i32 %44, 0
  br i1 %45, label %46, label %_ZN5Ipopt8SmartPtrIKNS_10JournalistEED2Ev.exit23

46:                                               ; preds = %41
  %47 = load ptr, ptr %40, align 8
  %48 = getelementptr inbounds i8, ptr %47, i64 8
  %49 = load ptr, ptr %48, align 8
  call void %49(ptr noundef nonnull align 8 dereferenceable(40) %40) #9
  br label %_ZN5Ipopt8SmartPtrIKNS_10JournalistEED2Ev.exit23

_ZN5Ipopt8SmartPtrIKNS_10JournalistEED2Ev.exit23: ; preds = %38, %41, %46
  resume { ptr, i32 } %39

50:                                               ; preds = %7
  %51 = tail call noundef ptr @_ZNKSt7__cxx1112basic_stringIcSt11char_traitsIcESaIcEE5c_strEv(ptr noundef nonnull align 8 dereferenceable(32) %6) #9
  %52 = load ptr, ptr %1, align 8
  %53 = getelementptr inbounds i8, ptr %52, i64 32
  %54 = load ptr, ptr %53, align 8
  tail call void (ptr, i32, i32, i32, ptr, ...) %54(ptr noundef nonnull align 8 dereferenceable(40) %1, i32 noundef %2, i32 noundef %3, i32 noundef %5, ptr noundef nonnull @.str.2, ptr noundef %51)
  br label %_ZN5Ipopt8SmartPtrIKNS_10JournalistEED2Ev.exit

_ZN5Ipopt8SmartPtrIKNS_10JournalistEED2Ev.exit:   ; preds = %34, %29, %27, %50
  ret void
}